(dp0
S'Review D'
p1
(dp2
S'out'
p3
(lp4
S'Home'
p5
assS'About'
p6
(dp7
g3
(lp8
g5
assS'Review A'
p9
(dp10
g3
(lp11
g5
assS'Review B'
p12
(dp13
g3
(lp14
g5
assS'Review C'
p15
(dp16
g3
(lp17
g5
assS'Product'
p18
(dp19
g3
(lp20
g5
assS'External Site A'
p21
(dp22
g3
(lp23
ssS'Links'
p24
(dp25
g3
(lp26
g5
ag21
aS'External Site B'
p27
aS'External Site C'
p28
ag9
ag12
ag15
ag1
assg28
(dp29
g3
(lp30
ssg27
(dp31
g3
(lp32
ssg5
(dp33
g3
(lp34
g6
ag18
ag24
ass.